target datalayout = "e-m:e-p270:32:32-p271:32:32-p272:64:64-i64:64-i128:128-f80:128-n8:16:32:64-S128"
target triple = "x86_64-pc-linux-gnu"

%class.RAROptions = type { i32, i32, i8, i8, i8, i64, [2048 x i32], [2048 x i32], i32, i8, [2048 x i32], [2048 x i32], i32, i32, i32, i32, [2048 x i32], [2048 x i32], i8, i8, i8, [2048 x i32], i32, i32, i32, i32, i32, i32, i32, i32, i8, i8, i8, i8, i8, i32, i32, i8, i8, i8, i8, i8, i32, i32, i64, i32, i8, i8, i8, i32, i32, i8, i8, i8, i8, i32, i32, i8, i8, i8, i8, [128 x i32], [128 x i32], i8, i8, i8, i8, i8, %class.RarTime, %class.RarTime, %class.RarTime, i8, i8, i8, %class.RarTime, %class.RarTime, %class.RarTime, i8, i8, i8, i64, i64, i8, i8, i8, [16 x %struct.FilterMode], [2048 x i32], i32, i32, i32, i32, i32, i32, i8, [2048 x i32], i32, [2048 x i32], i32, i32, i64, ptr, ptr, ptr }
%class.RarTime = type { i64 }
%struct.FilterMode = type { i32, i32, i32 }
%class.uiMsgStore = type <{ [8 x ptr], [8 x i32], i32, i32, i32, [4 x i8] }>

@.str.26 = private unnamed_addr constant [1 x i32] zeroinitializer, align 4
@.str.31 = private unnamed_addr constant [4 x i32] [i32 45, i32 104, i32 116, i32 0], align 4
@.str.32 = private unnamed_addr constant [4 x i32] [i32 45, i32 111, i32 104, i32 0], align 4
@.str.33 = private unnamed_addr constant [4 x i32] [i32 45, i32 113, i32 111, i32 0], align 4

; Function Attrs: mustprogress nounwind uwtable
define linkonce_odr void @_Z9uiMsgBaseR10uiMsgStore(ptr noundef nonnull align 8 dereferenceable(108) %0) #1 comdat {
  %2 = alloca ptr, align 8
  store ptr %0, ptr %2, align 8
  ret void
}

; Function Attrs: mustprogress nounwind uwtable
define linkonce_odr noundef nonnull align 8 dereferenceable(108) ptr @_ZN10uiMsgStorelsEj(ptr noundef nonnull align 8 dereferenceable(108) %0, i32 noundef %1) #1 comdat align 2 {
  %3 = alloca ptr, align 8
  %4 = alloca i32, align 4
  store ptr %0, ptr %3, align 8
  store i32 %1, ptr %4, align 4
  %5 = load ptr, ptr %3, align 8
  %6 = getelementptr inbounds %class.uiMsgStore, ptr %5, i32 0, i32 3
  %7 = load i32, ptr %6, align 4
  %8 = zext i32 %7 to i64
  %9 = icmp ult i64 %8, 8
  br i1 %9, label %10, label %18

10:                                               ; preds = %2
  %11 = load i32, ptr %4, align 4
  %12 = getelementptr inbounds %class.uiMsgStore, ptr %5, i32 0, i32 1
  %13 = getelementptr inbounds %class.uiMsgStore, ptr %5, i32 0, i32 3
  %14 = load i32, ptr %13, align 4
  %15 = add i32 %14, 1
  store i32 %15, ptr %13, align 4
  %16 = zext i32 %14 to i64
  %17 = getelementptr inbounds [8 x i32], ptr %12, i64 0, i64 %16
  store i32 %11, ptr %17, align 4
  br label %18

18:                                               ; preds = %10, %2
  ret ptr %5
}

; Function Attrs: mustprogress uwtable
define linkonce_odr void @_Z9uiMsgBaseIRiJEEvR10uiMsgStoreOT_DpOT0_(ptr noundef nonnull align 8 dereferenceable(108) %0, ptr noundef nonnull align 4 dereferenceable(4) %1) #0 comdat {
  %3 = alloca ptr, align 8
  %4 = alloca ptr, align 8
  store ptr %0, ptr %3, align 8
  store ptr %1, ptr %4, align 8
  %5 = load ptr, ptr %3, align 8
  %6 = load ptr, ptr %4, align 8
  %7 = load i32, ptr %6, align 4
  %8 = call noundef nonnull align 8 dereferenceable(108) ptr @_ZN10uiMsgStorelsEj(ptr noundef nonnull align 8 dereferenceable(108) %5, i32 noundef %7)
  %9 = load ptr, ptr %3, align 8
  call void @_Z9uiMsgBaseR10uiMsgStore(ptr noundef nonnull align 8 dereferenceable(108) %9)
  ret void
}

; Function Attrs: mustprogress nounwind uwtable
define linkonce_odr noundef nonnull align 8 dereferenceable(108) ptr @_ZN10uiMsgStorelsEPKw(ptr noundef nonnull align 8 dereferenceable(108) %0, ptr noundef %1) #1 comdat align 2 {
  %3 = alloca ptr, align 8
  %4 = alloca ptr, align 8
  store ptr %0, ptr %3, align 8
  store ptr %1, ptr %4, align 8
  %5 = load ptr, ptr %3, align 8
  %6 = getelementptr inbounds %class.uiMsgStore, ptr %5, i32 0, i32 2
  %7 = load i32, ptr %6, align 8
  %8 = zext i32 %7 to i64
  %9 = icmp ult i64 %8, 8
  br i1 %9, label %10, label %18

10:                                               ; preds = %2
  %11 = load ptr, ptr %4, align 8
  %12 = getelementptr inbounds %class.uiMsgStore, ptr %5, i32 0, i32 0
  %13 = getelementptr inbounds %class.uiMsgStore, ptr %5, i32 0, i32 2
  %14 = load i32, ptr %13, align 8
  %15 = add i32 %14, 1
  store i32 %15, ptr %13, align 8
  %16 = zext i32 %14 to i64
  %17 = getelementptr inbounds [8 x ptr], ptr %12, i64 0, i64 %16
  store ptr %11, ptr %17, align 8
  br label %18

18:                                               ; preds = %10, %2
  ret ptr %5
}

; Function Attrs: mustprogress uwtable
define linkonce_odr void @_Z9uiMsgBaseIRA4_KwJRiEEvR10uiMsgStoreOT_DpOT0_(ptr noundef nonnull align 8 dereferenceable(108) %0, ptr noundef nonnull align 4 dereferenceable(16) %1, ptr noundef nonnull align 4 dereferenceable(4) %2) #0 comdat {
  %4 = alloca ptr, align 8
  %5 = alloca ptr, align 8
  %6 = alloca ptr, align 8
  store ptr %0, ptr %4, align 8
  store ptr %1, ptr %5, align 8
  store ptr %2, ptr %6, align 8
  %7 = load ptr, ptr %4, align 8
  %8 = load ptr, ptr %5, align 8
  %9 = getelementptr inbounds [4 x i32], ptr %8, i64 0, i64 0
  %10 = call noundef nonnull align 8 dereferenceable(108) ptr @_ZN10uiMsgStorelsEPKw(ptr noundef nonnull align 8 dereferenceable(108) %7, ptr noundef %9)
  %11 = load ptr, ptr %4, align 8
  %12 = load ptr, ptr %6, align 8
  call void @_Z9uiMsgBaseIRiJEEvR10uiMsgStoreOT_DpOT0_(ptr noundef nonnull align 8 dereferenceable(108) %11, ptr noundef nonnull align 4 dereferenceable(4) %12)
  ret void
}

; Function Attrs: mustprogress nounwind uwtable
define linkonce_odr void @_ZN10uiMsgStoreC2E14UIMESSAGE_CODE(ptr noundef nonnull align 8 dereferenceable(108) %0, i32 noundef %1) unnamed_addr #1 comdat align 2 {
  %3 = alloca ptr, align 8
  %4 = alloca i32, align 4
  %5 = alloca i32, align 4
  store ptr %0, ptr %3, align 8
  store i32 %1, ptr %4, align 4
  %6 = load ptr, ptr %3, align 8
  store i32 0, ptr %5, align 4
  br label %7

7:                                                ; preds = %16, %2
  %8 = load i32, ptr %5, align 4
  %9 = zext i32 %8 to i64
  %10 = icmp ult i64 %9, 8
  br i1 %10, label %11, label %19

11:                                               ; preds = %7
  %12 = getelementptr inbounds %class.uiMsgStore, ptr %6, i32 0, i32 0
  %13 = load i32, ptr %5, align 4
  %14 = zext i32 %13 to i64
  %15 = getelementptr inbounds [8 x ptr], ptr %12, i64 0, i64 %14
  store ptr @.str.26, ptr %15, align 8
  br label %16

16:                                               ; preds = %11
  %17 = load i32, ptr %5, align 4
  %18 = add i32 %17, 1
  store i32 %18, ptr %5, align 4
  br label %7, !llvm.loop !24

19:                                               ; preds = %7
  %20 = getelementptr inbounds %class.uiMsgStore, ptr %6, i32 0, i32 1
  %21 = getelementptr inbounds [8 x i32], ptr %20, i64 0, i64 0
  call void @llvm.memset.p0.i64(ptr align 8 %21, i8 0, i64 32, i1 false)
  %22 = getelementptr inbounds %class.uiMsgStore, ptr %6, i32 0, i32 2
  store i32 0, ptr %22, align 8
  %23 = getelementptr inbounds %class.uiMsgStore, ptr %6, i32 0, i32 3
  store i32 0, ptr %23, align 4
  %24 = load i32, ptr %4, align 4
  %25 = getelementptr inbounds %class.uiMsgStore, ptr %6, i32 0, i32 4
  store i32 %24, ptr %25, align 8
  ret void
}

; Function Attrs: mustprogress uwtable
define linkonce_odr void @_Z5uiMsgIJRA4_KwiEEv14UIMESSAGE_CODEDpOT_(i32 noundef %0, ptr noundef nonnull align 4 dereferenceable(16) %1, ptr noundef nonnull align 4 dereferenceable(4) %2) #0 comdat {
  %4 = alloca i32, align 4
  %5 = alloca ptr, align 8
  %6 = alloca ptr, align 8
  %7 = alloca %class.uiMsgStore, align 8
  store i32 %0, ptr %4, align 4
  store ptr %1, ptr %5, align 8
  store ptr %2, ptr %6, align 8
  %8 = load i32, ptr %4, align 4
  call void @_ZN10uiMsgStoreC2E14UIMESSAGE_CODE(ptr noundef nonnull align 8 dereferenceable(108) %7, i32 noundef %8)
  %9 = load ptr, ptr %5, align 8
  %10 = load ptr, ptr %6, align 8
  call void @_Z9uiMsgBaseIRA4_KwJRiEEvR10uiMsgStoreOT_DpOT0_(ptr noundef nonnull align 8 dereferenceable(108) %7, ptr noundef nonnull align 4 dereferenceable(16) %9, ptr noundef nonnull align 4 dereferenceable(4) %10)
  call void @_ZN10uiMsgStore3MsgEv(ptr noundef nonnull align 8 dereferenceable(108) %7)
  ret void
}

; Function Attrs: mustprogress uwtable
define void @_ZN11CommandData19ReportWrongSwitchesE9RARFORMAT(ptr noundef nonnull align 8 dereferenceable(100904) %0, i32 noundef %1) #0 align 2 {
  %3 = alloca ptr, align 8
  %4 = alloca i32, align 4
  %5 = alloca i32, align 4
  %6 = alloca i32, align 4
  %7 = alloca i32, align 4
  store ptr %0, ptr %3, align 8
  store i32 %1, ptr %4, align 4
  %8 = load ptr, ptr %3, align 8
  %9 = load i32, ptr %4, align 4
  %10 = icmp eq i32 %9, 2
  br i1 %10, label %11, label %27

11:                                               ; preds = %2
  %12 = getelementptr inbounds %class.RAROptions, ptr %8, i32 0, i32 26
  %13 = load i32, ptr %12, align 4
  %14 = icmp ne i32 %13, 2
  br i1 %14, label %15, label %16

15:                                               ; preds = %11
  store i32 4, ptr %5, align 4
  call void @_Z5uiMsgIJRA4_KwiEEv14UIMESSAGE_CODEDpOT_(i32 noundef 85, ptr noundef nonnull align 4 dereferenceable(16) @.str.31, ptr noundef nonnull align 4 dereferenceable(4) %5)
  br label %16

16:                                               ; preds = %15, %11
  %17 = getelementptr inbounds %class.RAROptions, ptr %8, i32 0, i32 53
  %18 = load i8, ptr %17, align 2
  %19 = trunc i8 %18 to i1
  br i1 %19, label %20, label %21

20:                                               ; preds = %16
  store i32 4, ptr %6, align 4
  call void @_Z5uiMsgIJRA4_KwiEEv14UIMESSAGE_CODEDpOT_(i32 noundef 85, ptr noundef nonnull align 4 dereferenceable(16) @.str.32, ptr noundef nonnull align 4 dereferenceable(4) %6)
  br label %21

21:                                               ; preds = %20, %16
  %22 = getelementptr inbounds %class.RAROptions, ptr %8, i32 0, i32 8
  %23 = load i32, ptr %22, align 8
  %24 = icmp ne i32 %23, 1
  br i1 %24, label %25, label %26

25:                                               ; preds = %21
  store i32 4, ptr %7, align 4
  call void @_Z5uiMsgIJRA4_KwiEEv14UIMESSAGE_CODEDpOT_(i32 noundef 85, ptr noundef nonnull align 4 dereferenceable(16) @.str.33, ptr noundef nonnull align 4 dereferenceable(4) %7)
  br label %26

26:                                               ; preds = %25, %21
  br label %27

27:                                               ; preds = %26, %2
  %28 = load i32, ptr %4, align 4
  %29 = icmp eq i32 %28, 3
  br i1 %29, label %30, label %31

30:                                               ; preds = %27
  br label %31

31:                                               ; preds = %30, %27
  ret void
}