; Function Attrs: mustprogress uwtable
define void @_ZN11CommandData19ReportWrongSwitchesE9RARFORMAT(ptr noundef nonnull readonly align 8 captures(none) dereferenceable(100904) %0, i32 noundef %1) local_unnamed_addr #0 align 2 {
  %3 = alloca %class.uiMsgStore, align 8
  %4 = alloca %class.uiMsgStore, align 8
  %5 = alloca %class.uiMsgStore, align 8
  %6 = icmp eq i32 %1, 2
  br i1 %6, label %7, label %38

7:                                                ; preds = %2
  %8 = getelementptr inbounds nuw i8, ptr %0, i64 57412
  %9 = load i32, ptr %8, align 4
  %.not = icmp eq i32 %9, 2
  br i1 %.not, label %17, label %10

10:                                               ; preds = %7
  call void @llvm.lifetime.start.p0(i64 112, ptr nonnull %5)
  br label %11

11:                                               ; preds = %11, %10
  %indvars.iv.i.i = phi i64 [ 0, %10 ], [ %indvars.iv.next.i.i, %11 ]
  %12 = getelementptr inbounds nuw [8 x ptr], ptr %5, i64 0, i64 %indvars.iv.i.i
  store ptr @.str.26, ptr %12, align 8
  %indvars.iv.next.i.i = add nuw nsw i64 %indvars.iv.i.i, 1
  %exitcond.not.i.i = icmp eq i64 %indvars.iv.next.i.i, 8
  br i1 %exitcond.not.i.i, label %_Z5uiMsgIJRA4_KwiEEv14UIMESSAGE_CODEDpOT_.exit, label %11, !llvm.loop !11

_Z5uiMsgIJRA4_KwiEEv14UIMESSAGE_CODEDpOT_.exit:   ; preds = %11
  %13 = getelementptr inbounds nuw i8, ptr %5, i64 64
  %14 = getelementptr inbounds nuw i8, ptr %5, i64 104
  call void @llvm.memset.p0.i64(ptr noundef nonnull align 8 dereferenceable(40) %13, i8 0, i64 32, i1 false)
  store i32 85, ptr %14, align 8
  %15 = getelementptr inbounds nuw i8, ptr %5, i64 96
  store i32 1, ptr %15, align 8
  store ptr @.str.31, ptr %5, align 8
  %16 = getelementptr inbounds nuw i8, ptr %5, i64 100
  store i32 1, ptr %16, align 4
  store i32 4, ptr %13, align 8
  call void @_ZN10uiMsgStore3MsgEv(ptr noundef nonnull align 8 dereferenceable(108) %5)
  call void @llvm.lifetime.end.p0(i64 112, ptr nonnull %5)
  br label %17

17:                                               ; preds = %_Z5uiMsgIJRA4_KwiEEv14UIMESSAGE_CODEDpOT_.exit, %7
  %18 = getelementptr inbounds nuw i8, ptr %0, i64 57490
  %19 = load i8, ptr %18, align 2
  %20 = trunc i8 %19 to i1
  br i1 %20, label %21, label %28

21:                                               ; preds = %17
  call void @llvm.lifetime.start.p0(i64 112, ptr nonnull %4)
  br label %22

22:                                               ; preds = %22, %21
  %indvars.iv.i.i3 = phi i64 [ 0, %21 ], [ %indvars.iv.next.i.i4, %22 ]
  %23 = getelementptr inbounds nuw [8 x ptr], ptr %4, i64 0, i64 %indvars.iv.i.i3
  store ptr @.str.26, ptr %23, align 8
  %indvars.iv.next.i.i4 = add nuw nsw i64 %indvars.iv.i.i3, 1
  %exitcond.not.i.i5 = icmp eq i64 %indvars.iv.next.i.i4, 8
  br i1 %exitcond.not.i.i5, label %_Z5uiMsgIJRA4_KwiEEv14UIMESSAGE_CODEDpOT_.exit6, label %22, !llvm.loop !11

_Z5uiMsgIJRA4_KwiEEv14UIMESSAGE_CODEDpOT_.exit6:  ; preds = %22
  %24 = getelementptr inbounds nuw i8, ptr %4, i64 64
  %25 = getelementptr inbounds nuw i8, ptr %4, i64 104
  call void @llvm.memset.p0.i64(ptr noundef nonnull align 8 dereferenceable(40) %24, i8 0, i64 32, i1 false)
  store i32 85, ptr %25, align 8
  %26 = getelementptr inbounds nuw i8, ptr %4, i64 96
  store i32 1, ptr %26, align 8
  store ptr @.str.32, ptr %4, align 8
  %27 = getelementptr inbounds nuw i8, ptr %4, i64 100
  store i32 1, ptr %27, align 4
  store i32 4, ptr %24, align 8
  call void @_ZN10uiMsgStore3MsgEv(ptr noundef nonnull align 8 dereferenceable(108) %4)
  call void @llvm.lifetime.end.p0(i64 112, ptr nonnull %4)
  br label %28

28:                                               ; preds = %_Z5uiMsgIJRA4_KwiEEv14UIMESSAGE_CODEDpOT_.exit6, %17
  %29 = getelementptr inbounds nuw i8, ptr %0, i64 16408
  %30 = load i32, ptr %29, align 8
  %.not2 = icmp eq i32 %30, 1
  br i1 %.not2, label %38, label %31

31:                                               ; preds = %28
  call void @llvm.lifetime.start.p0(i64 112, ptr nonnull %3)
  br label %32

32:                                               ; preds = %32, %31
  %indvars.iv.i.i7 = phi i64 [ 0, %31 ], [ %indvars.iv.next.i.i8, %32 ]
  %33 = getelementptr inbounds nuw [8 x ptr], ptr %3, i64 0, i64 %indvars.iv.i.i7
  store ptr @.str.26, ptr %33, align 8
  %indvars.iv.next.i.i8 = add nuw nsw i64 %indvars.iv.i.i7, 1
  %exitcond.not.i.i9 = icmp eq i64 %indvars.iv.next.i.i8, 8
  br i1 %exitcond.not.i.i9, label %_Z5uiMsgIJRA4_KwiEEv14UIMESSAGE_CODEDpOT_.exit10, label %32, !llvm.loop !11

_Z5uiMsgIJRA4_KwiEEv14UIMESSAGE_CODEDpOT_.exit10: ; preds = %32
  %34 = getelementptr inbounds nuw i8, ptr %3, i64 64
  %35 = getelementptr inbounds nuw i8, ptr %3, i64 104
  call void @llvm.memset.p0.i64(ptr noundef nonnull align 8 dereferenceable(40) %34, i8 0, i64 32, i1 false)
  store i32 85, ptr %35, align 8
  %36 = getelementptr inbounds nuw i8, ptr %3, i64 96
  store i32 1, ptr %36, align 8
  store ptr @.str.33, ptr %3, align 8
  %37 = getelementptr inbounds nuw i8, ptr %3, i64 100
  store i32 1, ptr %37, align 4
  store i32 4, ptr %34, align 8
  call void @_ZN10uiMsgStore3MsgEv(ptr noundef nonnull align 8 dereferenceable(108) %3)
  call void @llvm.lifetime.end.p0(i64 112, ptr nonnull %3)
  br label %38

38:                                               ; preds = %28, %_Z5uiMsgIJRA4_KwiEEv14UIMESSAGE_CODEDpOT_.exit10, %2
  ret void
}